Certificate:
    Data:
        Version: 3 (0x2)
        Serial Number: 2 (0x2)
    Signature Algorithm: sha256WithRSAEncryption
        Issuer: C=CN, ST=ZJ, L=ZJ, O=ZJ, OU=ZJ, CN=ZJ CA/name=EasyRSA/emailAddress=ZJ@ZJ.com
        Validity
            Not Before: Aug 23 14:26:58 2017 GMT
            Not After : Aug 21 14:26:58 2027 GMT
        Subject: C=CN, ST=ZJ, L=ZJ, O=ZJ, OU=ZJ, CN=client1/name=EasyRSA/emailAddress=ZJ@ZJ.com
        Subject Public Key Info:
            Public Key Algorithm: rsaEncryption
                Public-Key: (1024 bit)
                Modulus:
                    00:b7:6b:40:0b:c1:ef:a7:c3:fa:54:32:c2:d7:87:
                    fa:ac:85:18:ae:af:44:ba:dd:57:0f:43:73:eb:df:
                    37:5e:5e:8f:ad:43:7a:87:dd:a6:bd:6a:0b:68:8d:
                    75:0c:fe:49:39:e1:54:11:53:0f:b5:63:10:5b:21:
                    98:7f:53:32:b3:d6:b0:3d:23:fc:1d:ad:06:b0:f0:
                    fb:10:27:83:e1:5e:5a:b4:f6:7c:02:87:4c:73:86:
                    7b:79:07:ca:a7:1c:18:2c:70:e3:9d:e6:f0:89:06:
                    4b:25:2c:09:39:51:c3:d4:44:ef:81:5e:aa:e0:63:
                    d8:11:c6:9c:e0:6f:d8:66:11
                Exponent: 65537 (0x10001)
        X509v3 extensions:
            X509v3 Basic Constraints: 
                CA:FALSE
            Netscape Comment: 
                Easy-RSA Generated Certificate
            X509v3 Subject Key Identifier: 
                E8:15:F9:71:C4:A7:C2:41:A3:AF:F5:C5:93:51:8E:5D:67:9B:12:E2
            X509v3 Authority Key Identifier: 
                keyid:8D:D5:04:79:10:05:4F:1B:12:63:11:AC:00:D4:FC:CC:31:00:B8:09
                DirName:/C=CN/ST=ZJ/L=ZJ/O=ZJ/OU=ZJ/CN=ZJ CA/name=EasyRSA/emailAddress=ZJ@ZJ.com
                serial:AE:18:A1:E1:3D:52:4D:F0

            X509v3 Extended Key Usage: 
                TLS Web Client Authentication
            X509v3 Key Usage: 
                Digital Signature
    Signature Algorithm: sha256WithRSAEncryption
         5b:63:c2:e5:e4:04:ad:f4:b6:76:24:df:94:a5:b0:a2:99:38:
         f9:e7:b4:2f:79:91:51:1b:06:4b:33:fc:4c:74:ce:47:3e:54:
         1b:da:ea:43:e3:6d:6e:ec:b4:cd:77:86:ea:ea:48:a1:79:70:
         5c:ff:99:0e:fb:bd:fc:0d:89:a6:2e:13:fe:86:82:69:33:4c:
         28:21:0d:a8:ba:1a:3e:c7:2e:2d:97:0c:5a:ed:e3:af:73:fc:
         bb:c9:58:05:c5:26:56:13:1c:3e:8f:90:c7:e8:d9:e5:0b:1f:
         40:9a:fa:15:49:b9:d8:8e:6a:fd:71:f4:3c:df:a1:11:af:fb:
         ea:a8
-----BEGIN CERTIFICATE-----
MIIDpjCCAw+gAwIBAgIBAjANBgkqhkiG9w0BAQsFADB9MQswCQYDVQQGEwJDTjEL
MAkGA1UECBMCWkoxCzAJBgNVBAcTAlpKMQswCQYDVQQKEwJaSjELMAkGA1UECxMC
WkoxDjAMBgNVBAMTBVpKIENBMRAwDgYDVQQpEwdFYXN5UlNBMRgwFgYJKoZIhvcN
AQkBFglaSkBaSi5jb20wHhcNMTcwODIzMTQyNjU4WhcNMjcwODIxMTQyNjU4WjB/
MQswCQYDVQQGEwJDTjELMAkGA1UECBMCWkoxCzAJBgNVBAcTAlpKMQswCQYDVQQK
EwJaSjELMAkGA1UECxMCWkoxEDAOBgNVBAMTB2NsaWVudDExEDAOBgNVBCkTB0Vh
c3lSU0ExGDAWBgkqhkiG9w0BCQEWCVpKQFpKLmNvbTCBnzANBgkqhkiG9w0BAQEF
AAOBjQAwgYkCgYEAt2tAC8Hvp8P6VDLC14f6rIUYrq9Eut1XD0Nz6983Xl6PrUN6
h92mvWoLaI11DP5JOeFUEVMPtWMQWyGYf1Mys9awPSP8Ha0GsPD7ECeD4V5atPZ8
AodMc4Z7eQfKpxwYLHDjnebwiQZLJSwJOVHD1ETvgV6q4GPYEcac4G/YZhECAwEA
AaOCATIwggEuMAkGA1UdEwQCMAAwLQYJYIZIAYb4QgENBCAWHkVhc3ktUlNBIEdl
bmVyYXRlZCBDZXJ0aWZpY2F0ZTAdBgNVHQ4EFgQU6BX5ccSnwkGjr/XFk1GOXWeb
EuIwgbAGA1UdIwSBqDCBpYAUjdUEeRAFTxsSYxGsANT8zDEAuAmhgYGkfzB9MQsw
CQYDVQQGEwJDTjELMAkGA1UECBMCWkoxCzAJBgNVBAcTAlpKMQswCQYDVQQKEwJa
SjELMAkGA1UECxMCWkoxDjAMBgNVBAMTBVpKIENBMRAwDgYDVQQpEwdFYXN5UlNB
MRgwFgYJKoZIhvcNAQkBFglaSkBaSi5jb22CCQCuGKHhPVJN8DATBgNVHSUEDDAK
BggrBgEFBQcDAjALBgNVHQ8EBAMCB4AwDQYJKoZIhvcNAQELBQADgYEAW2PC5eQE
rfS2diTflKWwopk4+ee0L3mRURsGSzP8THTORz5UG9rqQ+Ntbuy0zXeG6upIoXlw
XP+ZDvu9/A2Jpi4T/oaCaTNMKCENqLoaPscuLZcMWu3jr3P8u8lYBcUmVhMcPo+Q
x+jZ5QsfQJr6FUm52I5q/XH0PN+hEa/76qg=
-----END CERTIFICATE-----
