Certificate:
    Data:
        Version: 3 (0x2)
        Serial Number: 1 (0x1)
    Signature Algorithm: sha256WithRSAEncryption
        Issuer: C=CN, ST=ZJ, L=ZJ, O=ZJ, OU=ZJ, CN=ZJ CA/name=EasyRSA/emailAddress=ZJ@ZJ.com
        Validity
            Not Before: Aug 23 14:26:42 2017 GMT
            Not After : Aug 21 14:26:42 2027 GMT
        Subject: C=CN, ST=ZJ, L=ZJ, O=ZJ, OU=ZJ, CN=server/name=EasyRSA/emailAddress=ZJ@ZJ.com
        Subject Public Key Info:
            Public Key Algorithm: rsaEncryption
                Public-Key: (1024 bit)
                Modulus:
                    00:e0:67:2e:33:ab:4f:4f:a1:78:c6:32:ba:d3:1d:
                    71:73:34:ba:45:40:88:87:76:03:fb:87:d8:4e:4e:
                    7c:7d:95:22:7d:8e:70:dc:68:10:27:fe:7d:f0:79:
                    93:86:83:ef:a9:16:78:ae:86:5e:ea:42:74:38:4d:
                    37:0d:c9:34:a6:84:5e:64:ad:dd:91:dd:df:02:bf:
                    53:f8:fb:c0:9b:cb:bd:93:7c:26:ab:bd:0a:c6:c3:
                    5d:da:5d:b3:c0:ff:72:a1:2f:1e:0b:f6:a6:71:77:
                    f9:00:38:8a:ae:ab:c0:86:11:ab:12:de:1e:82:13:
                    e8:c3:d5:bb:6f:2e:bf:6e:c1
                Exponent: 65537 (0x10001)
        X509v3 extensions:
            X509v3 Basic Constraints: 
                CA:FALSE
            Netscape Cert Type: 
                SSL Server
            Netscape Comment: 
                Easy-RSA Generated Server Certificate
            X509v3 Subject Key Identifier: 
                1C:06:47:33:61:0E:15:84:D5:08:5A:40:E6:C9:23:EF:87:F3:EE:F9
            X509v3 Authority Key Identifier: 
                keyid:8D:D5:04:79:10:05:4F:1B:12:63:11:AC:00:D4:FC:CC:31:00:B8:09
                DirName:/C=CN/ST=ZJ/L=ZJ/O=ZJ/OU=ZJ/CN=ZJ CA/name=EasyRSA/emailAddress=ZJ@ZJ.com
                serial:AE:18:A1:E1:3D:52:4D:F0

            X509v3 Extended Key Usage: 
                TLS Web Server Authentication
            X509v3 Key Usage: 
                Digital Signature, Key Encipherment
    Signature Algorithm: sha256WithRSAEncryption
         aa:b5:0d:7a:b3:09:7a:d4:e6:df:46:0d:54:39:e2:34:da:4f:
         9b:92:d6:41:db:10:b9:ed:66:34:7f:9d:a9:fa:af:6a:80:b4:
         1f:13:d3:39:a6:72:93:5a:6b:e8:4f:ba:95:f9:83:10:58:b3:
         fe:12:3f:a9:e8:31:04:e0:8e:d8:4c:c1:f7:7e:fc:7a:ba:17:
         d8:2e:76:ab:7c:17:ca:a4:1d:3d:c5:bc:df:02:e5:2e:91:c4:
         b2:6c:40:a1:e2:3d:64:15:da:a6:b0:e4:1d:66:11:54:c0:49:
         05:91:c4:69:68:2d:bc:d5:f6:32:43:3c:18:c4:97:54:45:52:
         28:36
-----BEGIN CERTIFICATE-----
MIIDvzCCAyigAwIBAgIBATANBgkqhkiG9w0BAQsFADB9MQswCQYDVQQGEwJDTjEL
MAkGA1UECBMCWkoxCzAJBgNVBAcTAlpKMQswCQYDVQQKEwJaSjELMAkGA1UECxMC
WkoxDjAMBgNVBAMTBVpKIENBMRAwDgYDVQQpEwdFYXN5UlNBMRgwFgYJKoZIhvcN
AQkBFglaSkBaSi5jb20wHhcNMTcwODIzMTQyNjQyWhcNMjcwODIxMTQyNjQyWjB+
MQswCQYDVQQGEwJDTjELMAkGA1UECBMCWkoxCzAJBgNVBAcTAlpKMQswCQYDVQQK
EwJaSjELMAkGA1UECxMCWkoxDzANBgNVBAMTBnNlcnZlcjEQMA4GA1UEKRMHRWFz
eVJTQTEYMBYGCSqGSIb3DQEJARYJWkpAWkouY29tMIGfMA0GCSqGSIb3DQEBAQUA
A4GNADCBiQKBgQDgZy4zq09PoXjGMrrTHXFzNLpFQIiHdgP7h9hOTnx9lSJ9jnDc
aBAn/n3weZOGg++pFniuhl7qQnQ4TTcNyTSmhF5krd2R3d8Cv1P4+8Cby72TfCar
vQrGw13aXbPA/3KhLx4L9qZxd/kAOIquq8CGEasS3h6CE+jD1btvLr9uwQIDAQAB
o4IBTDCCAUgwCQYDVR0TBAIwADARBglghkgBhvhCAQEEBAMCBkAwNAYJYIZIAYb4
QgENBCcWJUVhc3ktUlNBIEdlbmVyYXRlZCBTZXJ2ZXIgQ2VydGlmaWNhdGUwHQYD
VR0OBBYEFBwGRzNhDhWE1QhaQObJI++H8+75MIGwBgNVHSMEgagwgaWAFI3VBHkQ
BU8bEmMRrADU/MwxALgJoYGBpH8wfTELMAkGA1UEBhMCQ04xCzAJBgNVBAgTAlpK
MQswCQYDVQQHEwJaSjELMAkGA1UEChMCWkoxCzAJBgNVBAsTAlpKMQ4wDAYDVQQD
EwVaSiBDQTEQMA4GA1UEKRMHRWFzeVJTQTEYMBYGCSqGSIb3DQEJARYJWkpAWkou
Y29tggkArhih4T1STfAwEwYDVR0lBAwwCgYIKwYBBQUHAwEwCwYDVR0PBAQDAgWg
MA0GCSqGSIb3DQEBCwUAA4GBAKq1DXqzCXrU5t9GDVQ54jTaT5uS1kHbELntZjR/
nan6r2qAtB8T0zmmcpNaa+hPupX5gxBYs/4SP6noMQTgjthMwfd+/Hq6F9gudqt8
F8qkHT3FvN8C5S6RxLJsQKHiPWQV2qaw5B1mEVTASQWRxGloLbzV9jJDPBjEl1RF
Uig2
-----END CERTIFICATE-----
