Certificate:
    Data:
        Version: 3 (0x2)
        Serial Number: 10103261736457418066 (0x8c35ff051a573552)
    Signature Algorithm: sha256WithRSAEncryption
        Issuer: C=CN, ST=bj, O=kunteng.org, OU=r&d, CN=liudengfeng/emailAddress=liudf0716@qq.com
        Validity
            Not Before: Nov 17 06:48:49 2016 GMT
            Not After : Nov 17 06:48:49 2017 GMT
        Subject: C=CN, ST=BJ, L=BJ, O=KUNTENG, OU=RD, CN=APFREE
        Subject Public Key Info:
            Public Key Algorithm: rsaEncryption
                Public-Key: (2048 bit)
                Modulus:
                    00:d4:9a:a1:2c:ee:37:14:60:87:24:ce:98:7d:b6:
                    33:ab:4c:9c:fb:cf:c4:99:e5:20:4f:29:5f:59:9a:
                    31:3b:1f:ae:65:9f:8e:3b:de:9f:02:09:b9:e3:44:
                    1e:7c:e3:23:0c:d5:81:2d:6e:73:d1:e3:af:a8:5f:
                    ce:91:44:5a:e2:ef:cb:95:43:3f:b1:d7:3d:ee:f9:
                    a2:38:b8:3e:21:73:7e:93:ce:fd:41:77:ad:ad:09:
                    a3:96:03:ac:db:68:56:8a:93:e1:04:5c:94:11:b5:
                    3d:55:3d:7e:f7:85:c4:48:20:d8:42:68:7a:6c:18:
                    12:7b:d4:d0:f8:d4:27:fa:77:95:6b:19:cf:0e:37:
                    3c:e5:44:56:b1:4b:e4:30:b1:7e:91:4e:9f:f5:c2:
                    ff:fe:6a:8b:9a:2e:de:bd:37:a4:de:5d:9a:d0:30:
                    6e:ad:87:c9:b4:2a:57:81:6f:7e:44:e5:9e:a4:4c:
                    9a:8e:4c:1c:57:6e:b0:c5:95:4b:dd:b0:00:45:e6:
                    d0:d4:52:99:c2:c6:71:d7:a5:03:ee:1b:05:fe:b3:
                    6c:15:71:45:68:3a:60:b2:cc:e9:9d:8a:30:73:53:
                    8c:75:7a:da:80:f6:74:3f:19:64:af:5f:ee:75:e2:
                    d3:63:8e:57:62:cc:28:54:2b:16:26:03:69:a8:6a:
                    63:81
                Exponent: 65537 (0x10001)
        X509v3 extensions:
            X509v3 Basic Constraints: 
                CA:FALSE
            Netscape Comment: 
                OpenSSL Generated Certificate
            X509v3 Subject Key Identifier: 
                4B:46:E7:5E:26:B0:87:DD:43:01:FE:21:6C:73:FD:8F:9B:DC:C6:1B
            X509v3 Authority Key Identifier: 
                keyid:D7:CC:E4:2E:30:90:73:04:D9:95:45:BD:42:A3:19:1B:ED:5B:6D:6D

    Signature Algorithm: sha256WithRSAEncryption
         41:f6:ae:74:24:fe:f5:0d:3a:50:1c:60:0a:ba:6c:e0:7a:8c:
         44:11:83:b3:13:d5:1b:90:bb:e1:0a:de:a5:41:29:f6:7c:c0:
         27:f9:c5:89:2b:7f:0e:3f:20:09:0b:5a:66:ac:ef:90:8a:8f:
         05:ea:89:ac:26:4a:41:23:88:9a:f7:94:48:00:31:ca:2d:12:
         14:23:bc:7f:2c:ae:04:c1:87:35:8c:10:16:56:c0:95:ec:84:
         80:9e:91:fa:d5:47:c2:03:fe:86:5f:47:90:60:50:a8:33:e2:
         7d:7f:18:cb:ea:a8:05:d7:2d:6e:86:5f:3e:24:6f:c0:a3:22:
         f6:8b:0b:29:8a:a0:b8:30:3d:33:e3:26:94:23:36:f3:45:ac:
         70:e7:a5:77:0f:01:65:ed:63:c7:0a:cf:5d:11:48:29:35:ca:
         5f:d2:5e:91:84:f9:69:dc:5e:64:70:44:0a:5a:a9:7c:a3:be:
         60:16:09:74:69:06:93:d7:05:51:20:7c:52:7a:65:fe:70:af:
         c8:50:70:de:6d:83:88:14:cb:8b:67:0d:1c:8f:74:c0:a8:c9:
         1b:c2:1f:0b:f3:4f:01:cb:f8:96:c4:f1:b4:38:cf:c1:22:6c:
         82:e1:a9:2d:9d:77:a1:46:04:2c:26:17:43:e2:a9:b3:5b:db:
         a3:c5:f1:46
-----BEGIN CERTIFICATE-----
MIIDyjCCArKgAwIBAgIJAIw1/wUaVzVSMA0GCSqGSIb3DQEBCwUAMHUxCzAJBgNV
BAYTAkNOMQswCQYDVQQIDAJiajEUMBIGA1UECgwLa3VudGVuZy5vcmcxDDAKBgNV
BAsMA3ImZDEUMBIGA1UEAwwLbGl1ZGVuZ2ZlbmcxHzAdBgkqhkiG9w0BCQEWEGxp
dWRmMDcxNkBxcS5jb20wHhcNMTYxMTE3MDY0ODQ5WhcNMTcxMTE3MDY0ODQ5WjBX
MQswCQYDVQQGEwJDTjELMAkGA1UECAwCQkoxCzAJBgNVBAcMAkJKMRAwDgYDVQQK
DAdLVU5URU5HMQswCQYDVQQLDAJSRDEPMA0GA1UEAwwGQVBGUkVFMIIBIjANBgkq
hkiG9w0BAQEFAAOCAQ8AMIIBCgKCAQEA1JqhLO43FGCHJM6YfbYzq0yc+8/EmeUg
TylfWZoxOx+uZZ+OO96fAgm540QefOMjDNWBLW5z0eOvqF/OkURa4u/LlUM/sdc9
7vmiOLg+IXN+k879QXetrQmjlgOs22hWipPhBFyUEbU9VT1+94XESCDYQmh6bBgS
e9TQ+NQn+neVaxnPDjc85URWsUvkMLF+kU6f9cL//mqLmi7evTek3l2a0DBurYfJ
tCpXgW9+ROWepEyajkwcV26wxZVL3bAARebQ1FKZwsZx16UD7hsF/rNsFXFFaDpg
sszpnYowc1OMdXragPZ0Pxlkr1/udeLTY45XYswoVCsWJgNpqGpjgQIDAQABo3sw
eTAJBgNVHRMEAjAAMCwGCWCGSAGG+EIBDQQfFh1PcGVuU1NMIEdlbmVyYXRlZCBD
ZXJ0aWZpY2F0ZTAdBgNVHQ4EFgQUS0bnXiawh91DAf4hbHP9j5vcxhswHwYDVR0j
BBgwFoAU18zkLjCQcwTZlUW9QqMZG+1bbW0wDQYJKoZIhvcNAQELBQADggEBAEH2
rnQk/vUNOlAcYAq6bOB6jEQRg7MT1RuQu+EK3qVBKfZ8wCf5xYkrfw4/IAkLWmas
75CKjwXqiawmSkEjiJr3lEgAMcotEhQjvH8srgTBhzWMEBZWwJXshICekfrVR8ID
/oZfR5BgUKgz4n1/GMvqqAXXLW6GXz4kb8CjIvaLCymKoLgwPTPjJpQjNvNFrHDn
pXcPAWXtY8cKz10RSCk1yl/SXpGE+WncXmRwRApaqXyjvmAWCXRpBpPXBVEgfFJ6
Zf5wr8hQcN5tg4gUy4tnDRyPdMCoyRvCHwvzTwHL+JbE8bQ4z8EibILhqS2dd6FG
BCwmF0PiqbNb26PF8UY=
-----END CERTIFICATE-----
